; Function Attrs: nounwind uwtable
define range(i32 0, 2) i32 @Abc_NtkFxPerform(ptr noundef %0, i32 noundef %1, i32 noundef %2, i32 noundef %3, i32 noundef %4, i32 noundef %5) local_unnamed_addr #0 {
  %7 = tail call i32 @Abc_NtkFxCheck(ptr noundef %0)
  %.not = icmp eq i32 %7, 0
  br i1 %.not, label %.sink.split, label %8

8:                                                ; preds = %6
  %9 = tail call ptr @Abc_NtkFxRetrieve(ptr noundef %0)
  %10 = getelementptr i8, ptr %0, i64 32
  %.val = load ptr, ptr %10, align 8, !tbaa !12
  %11 = getelementptr i8, ptr %.val, i64 4
  %.val.val = load i32, ptr %11, align 4, !tbaa !28
  %12 = tail call i32 @Fx_FastExtract(ptr noundef %9, i32 noundef %.val.val, i32 noundef %1, i32 noundef %2, i32 noundef %3, i32 noundef %4, i32 noundef %5)
  tail call void @Abc_NtkFxInsert(ptr noundef %0, ptr noundef %9)
  %13 = load i32, ptr %9, align 8, !tbaa !10
  %14 = icmp sgt i32 %13, 0
  %15 = getelementptr inbounds nuw i8, ptr %9, i64 8
  %.pre.i.i = load ptr, ptr %15, align 8, !tbaa !11
  br i1 %14, label %.lr.ph.i.i, label %._crit_edge.i.i

.lr.ph.i.i:                                       ; preds = %8, %23
  %16 = phi i32 [ %24, %23 ], [ %13, %8 ]
  %17 = phi ptr [ %25, %23 ], [ %.pre.i.i, %8 ]
  %indvars.iv.i.i = phi i64 [ %indvars.iv.next.i.i, %23 ], [ 0, %8 ]
  %18 = getelementptr inbounds nuw %struct.Vec_Int_t_, ptr %17, i64 %indvars.iv.i.i, i32 2
  %19 = load ptr, ptr %18, align 8, !tbaa !38
  %.not15.i.i = icmp eq ptr %19, null
  br i1 %.not15.i.i, label %23, label %20

20:                                               ; preds = %.lr.ph.i.i
  tail call void @free(ptr noundef nonnull %19) #28
  %21 = load ptr, ptr %15, align 8, !tbaa !11
  %22 = getelementptr inbounds nuw %struct.Vec_Int_t_, ptr %21, i64 %indvars.iv.i.i, i32 2
  store ptr null, ptr %22, align 8, !tbaa !38
  %.pre18.i.i = load i32, ptr %9, align 8, !tbaa !10
  br label %23

23:                                               ; preds = %20, %.lr.ph.i.i
  %24 = phi i32 [ %.pre18.i.i, %20 ], [ %16, %.lr.ph.i.i ]
  %25 = phi ptr [ %21, %20 ], [ %17, %.lr.ph.i.i ]
  %indvars.iv.next.i.i = add nuw nsw i64 %indvars.iv.i.i, 1
  %26 = sext i32 %24 to i64
  %27 = icmp slt i64 %indvars.iv.next.i.i, %26
  br i1 %27, label %.lr.ph.i.i, label %._crit_edge.thread.i.i, !llvm.loop !63

._crit_edge.i.i:                                  ; preds = %8
  %.not.i.i = icmp eq ptr %.pre.i.i, null
  br i1 %.not.i.i, label %Vec_WecFree.exit, label %._crit_edge.thread.i.i

._crit_edge.thread.i.i:                           ; preds = %23, %._crit_edge.i.i
  %28 = phi ptr [ %.pre.i.i, %._crit_edge.i.i ], [ %25, %23 ]
  tail call void @free(ptr noundef nonnull %28) #28
  br label %Vec_WecFree.exit

Vec_WecFree.exit:                                 ; preds = %._crit_edge.i.i, %._crit_edge.thread.i.i
  tail call void @free(ptr noundef nonnull %9) #28
  %29 = tail call i32 @Abc_NtkCheck(ptr noundef %0) #28
  %.not14 = icmp eq i32 %29, 0
  br i1 %.not14, label %.sink.split, label %30

.sink.split:                                      ; preds = %Vec_WecFree.exit, %6
  %str.2.sink = phi ptr [ @str.1, %6 ], [ @str.2, %Vec_WecFree.exit ]
  %.0.ph = phi i32 [ 0, %6 ], [ 1, %Vec_WecFree.exit ]
  %puts15 = tail call i32 @puts(ptr nonnull dereferenceable(1) %str.2.sink)
  br label %30

30:                                               ; preds = %.sink.split, %Vec_WecFree.exit
  %.0 = phi i32 [ 1, %Vec_WecFree.exit ], [ %.0.ph, %.sink.split ]
  ret i32 %.0
}